#include <math.h>
#include <stdio.h>
#include <stdlib.h>
#include <string.h>

void main()
{
	int n,i;
	char a[50][21];
	scanf("%d\n",&n);
    for(i=0;i<n;i++) 
	{
		gets(a[i]);
		int l=strlen(a[i]);
		if(a[i][l-1]=='r'||a[i][l-1]=='y') 
		{
			a[i][l-2]='\0';
			a[i][l-1]='\0';
		}
		else
		{
			a[i][l-2]='\0';
			a[i][l-1]='\0';
			a[i][l-3]='\0';
		}
	}
	int j;
	for(j=0;j<n;j++)  puts(a[j]);
		
}