; ModuleID = '57/79.c'
source_filename = "57/79.c"
target datalayout = "e-m:e-p270:32:32-p271:32:32-p272:64:64-i64:64-f80:128-n8:16:32:64-S128"
target triple = "x86_64-pc-linux-gnu"

@.str = private unnamed_addr constant [4 x i8] c"%d\0A\00", align 1

; Function Attrs: noinline nounwind uwtable
define dso_local void @main() #0 {
  %1 = alloca i32, align 4
  %2 = alloca i32, align 4
  %3 = alloca [50 x [21 x i8]], align 16
  %4 = alloca i32, align 4
  %5 = alloca i32, align 4
  %6 = call i32 (i8*, ...) @__isoc99_scanf(i8* getelementptr inbounds ([4 x i8], [4 x i8]* @.str, i64 0, i64 0), i32* %1)
  store i32 0, i32* %2, align 4
  br label %7

7:                                                ; preds = %82, %0
  %8 = load i32, i32* %2, align 4
  %9 = load i32, i32* %1, align 4
  %10 = icmp slt i32 %8, %9
  br i1 %10, label %11, label %85

11:                                               ; preds = %7
  %12 = load i32, i32* %2, align 4
  %13 = sext i32 %12 to i64
  %14 = getelementptr inbounds [50 x [21 x i8]], [50 x [21 x i8]]* %3, i64 0, i64 %13
  %15 = getelementptr inbounds [21 x i8], [21 x i8]* %14, i64 0, i64 0
  %16 = call i32 (i8*, ...) bitcast (i32 (...)* @gets to i32 (i8*, ...)*)(i8* %15)
  %17 = load i32, i32* %2, align 4
  %18 = sext i32 %17 to i64
  %19 = getelementptr inbounds [50 x [21 x i8]], [50 x [21 x i8]]* %3, i64 0, i64 %18
  %20 = getelementptr inbounds [21 x i8], [21 x i8]* %19, i64 0, i64 0
  %21 = call i64 @strlen(i8* %20) #3
  %22 = trunc i64 %21 to i32
  store i32 %22, i32* %4, align 4
  %23 = load i32, i32* %2, align 4
  %24 = sext i32 %23 to i64
  %25 = getelementptr inbounds [50 x [21 x i8]], [50 x [21 x i8]]* %3, i64 0, i64 %24
  %26 = load i32, i32* %4, align 4
  %27 = sub nsw i32 %26, 1
  %28 = sext i32 %27 to i64
  %29 = getelementptr inbounds [21 x i8], [21 x i8]* %25, i64 0, i64 %28
  %30 = load i8, i8* %29, align 1
  %31 = sext i8 %30 to i32
  %32 = icmp eq i32 %31, 114
  br i1 %32, label %44, label %33

33:                                               ; preds = %11
  %34 = load i32, i32* %2, align 4
  %35 = sext i32 %34 to i64
  %36 = getelementptr inbounds [50 x [21 x i8]], [50 x [21 x i8]]* %3, i64 0, i64 %35
  %37 = load i32, i32* %4, align 4
  %38 = sub nsw i32 %37, 1
  %39 = sext i32 %38 to i64
  %40 = getelementptr inbounds [21 x i8], [21 x i8]* %36, i64 0, i64 %39
  %41 = load i8, i8* %40, align 1
  %42 = sext i8 %41 to i32
  %43 = icmp eq i32 %42, 121
  br i1 %43, label %44, label %59

44:                                               ; preds = %33, %11
  %45 = load i32, i32* %2, align 4
  %46 = sext i32 %45 to i64
  %47 = getelementptr inbounds [50 x [21 x i8]], [50 x [21 x i8]]* %3, i64 0, i64 %46
  %48 = load i32, i32* %4, align 4
  %49 = sub nsw i32 %48, 2
  %50 = sext i32 %49 to i64
  %51 = getelementptr inbounds [21 x i8], [21 x i8]* %47, i64 0, i64 %50
  store i8 0, i8* %51, align 1
  %52 = load i32, i32* %2, align 4
  %53 = sext i32 %52 to i64
  %54 = getelementptr inbounds [50 x [21 x i8]], [50 x [21 x i8]]* %3, i64 0, i64 %53
  %55 = load i32, i32* %4, align 4
  %56 = sub nsw i32 %55, 1
  %57 = sext i32 %56 to i64
  %58 = getelementptr inbounds [21 x i8], [21 x i8]* %54, i64 0, i64 %57
  store i8 0, i8* %58, align 1
  br label %81

59:                                               ; preds = %33
  %60 = load i32, i32* %2, align 4
  %61 = sext i32 %60 to i64
  %62 = getelementptr inbounds [50 x [21 x i8]], [50 x [21 x i8]]* %3, i64 0, i64 %61
  %63 = load i32, i32* %4, align 4
  %64 = sub nsw i32 %63, 2
  %65 = sext i32 %64 to i64
  %66 = getelementptr inbounds [21 x i8], [21 x i8]* %62, i64 0, i64 %65
  store i8 0, i8* %66, align 1
  %67 = load i32, i32* %2, align 4
  %68 = sext i32 %67 to i64
  %69 = getelementptr inbounds [50 x [21 x i8]], [50 x [21 x i8]]* %3, i64 0, i64 %68
  %70 = load i32, i32* %4, align 4
  %71 = sub nsw i32 %70, 1
  %72 = sext i32 %71 to i64
  %73 = getelementptr inbounds [21 x i8], [21 x i8]* %69, i64 0, i64 %72
  store i8 0, i8* %73, align 1
  %74 = load i32, i32* %2, align 4
  %75 = sext i32 %74 to i64
  %76 = getelementptr inbounds [50 x [21 x i8]], [50 x [21 x i8]]* %3, i64 0, i64 %75
  %77 = load i32, i32* %4, align 4
  %78 = sub nsw i32 %77, 3
  %79 = sext i32 %78 to i64
  %80 = getelementptr inbounds [21 x i8], [21 x i8]* %76, i64 0, i64 %79
  store i8 0, i8* %80, align 1
  br label %81

81:                                               ; preds = %59, %44
  br label %82

82:                                               ; preds = %81
  %83 = load i32, i32* %2, align 4
  %84 = add nsw i32 %83, 1
  store i32 %84, i32* %2, align 4
  br label %7

85:                                               ; preds = %7
  store i32 0, i32* %5, align 4
  br label %86

86:                                               ; preds = %96, %85
  %87 = load i32, i32* %5, align 4
  %88 = load i32, i32* %1, align 4
  %89 = icmp slt i32 %87, %88
  br i1 %89, label %90, label %99

90:                                               ; preds = %86
  %91 = load i32, i32* %5, align 4
  %92 = sext i32 %91 to i64
  %93 = getelementptr inbounds [50 x [21 x i8]], [50 x [21 x i8]]* %3, i64 0, i64 %92
  %94 = getelementptr inbounds [21 x i8], [21 x i8]* %93, i64 0, i64 0
  %95 = call i32 @puts(i8* %94)
  br label %96

96:                                               ; preds = %90
  %97 = load i32, i32* %5, align 4
  %98 = add nsw i32 %97, 1
  store i32 %98, i32* %5, align 4
  br label %86

99:                                               ; preds = %86
  ret void
}

declare dso_local i32 @__isoc99_scanf(i8*, ...) #1

declare dso_local i32 @gets(...) #1

; Function Attrs: nounwind readonly
declare dso_local i64 @strlen(i8*) #2

declare dso_local i32 @puts(i8*) #1


!llvm.module.flags = !{!0}
!llvm.ident = !{!1}

!0 = !{i32 1, !"wchar_size", i32 4}
!1 = !{!"clang version 10.0.0-4ubuntu1 "}
